	.file	"main.c"
	.text
.Ltext0:
	.p2align 4
	.globl	gettime
	.type	gettime, @function
gettime:
.LFB39:
	.file 1 "main.c"
	.loc 1 10 1 view -0
	.cfi_startproc
	endbr32
	pushl	%ebx
	.cfi_def_cfa_offset 8
	.cfi_offset 3, -8
	call	__x86.get_pc_thunk.bx
	addl	$_GLOBAL_OFFSET_TABLE_, %ebx
	subl	$32, %esp
	.cfi_def_cfa_offset 40
	.loc 1 10 1 is_stmt 0 view .LVU1
	movl	%gs:20, %eax
	movl	%eax, 20(%esp)
	xorl	%eax, %eax
	.loc 1 11 5 is_stmt 1 view .LVU2
	.loc 1 12 5 view .LVU3
	.loc 1 13 5 view .LVU4
	.loc 1 15 5 view .LVU5
	.loc 1 15 14 is_stmt 0 view .LVU6
	pushl	$0
	.cfi_def_cfa_offset 44
	leal	16(%esp), %eax
	pushl	%eax
	.cfi_def_cfa_offset 48
	call	gettimeofday@PLT
.LVL0:
	.loc 1 16 5 is_stmt 1 view .LVU7
	.loc 1 17 5 view .LVU8
	.loc 1 18 16 is_stmt 0 view .LVU9
	movl	24(%esp), %ecx
	.loc 1 17 11 view .LVU10
	movl	$1000000, %eax
	imull	20(%esp)
.LVL1:
	.loc 1 18 5 is_stmt 1 view .LVU11
	.loc 1 18 16 is_stmt 0 view .LVU12
	movl	%ecx, %ebx
	sarl	$31, %ebx
	.loc 1 18 11 view .LVU13
	addl	%ecx, %eax
.LVL2:
	.loc 1 18 11 view .LVU14
	adcl	%ebx, %edx
.LVL3:
	.loc 1 20 5 is_stmt 1 view .LVU15
	.loc 1 20 12 is_stmt 0 view .LVU16
	addl	$16, %esp
	.cfi_def_cfa_offset 32
	.loc 1 21 1 view .LVU17
	movl	12(%esp), %ebx
	xorl	%gs:20, %ebx
	jne	.L5
	addl	$24, %esp
	.cfi_remember_state
	.cfi_def_cfa_offset 8
	popl	%ebx
	.cfi_restore 3
	.cfi_def_cfa_offset 4
	ret
.L5:
	.cfi_restore_state
	call	__stack_chk_fail_local
.LVL4:
	.loc 1 21 1 view .LVU18
	.cfi_endproc
.LFE39:
	.size	gettime, .-gettime
	.p2align 4
	.globl	c_function
	.type	c_function, @function
c_function:
.LVL5:
.LFB40:
	.loc 1 31 35 is_stmt 1 view -0
	.cfi_startproc
	.loc 1 31 35 is_stmt 0 view .LVU20
	endbr32
	.loc 1 32 5 is_stmt 1 view .LVU21
.LVL6:
	.loc 1 31 35 is_stmt 0 view .LVU22
	pushl	%ebp
	.cfi_def_cfa_offset 8
	.cfi_offset 5, -8
	pushl	%edi
	.cfi_def_cfa_offset 12
	.cfi_offset 7, -12
	pushl	%esi
	.cfi_def_cfa_offset 16
	.cfi_offset 6, -16
	pushl	%ebx
	.cfi_def_cfa_offset 20
	.cfi_offset 3, -20
	subl	$4, %esp
	.cfi_def_cfa_offset 24
	.loc 1 31 35 view .LVU23
	movl	28(%esp), %eax
	movl	24(%esp), %edx
	.loc 1 32 22 view .LVU24
	leal	-1(%eax), %ebx
.LVL7:
	.loc 1 33 5 is_stmt 1 view .LVU25
	.loc 1 34 5 view .LVU26
	.loc 1 34 11 view .LVU27
	testl	%ebx, %ebx
	jle	.L6
	leal	(%edx,%eax,2), %eax
	leal	-4(%edx), %esi
	.loc 1 32 12 is_stmt 0 view .LVU28
	xorl	%edi, %edi
	leal	-16(%eax,%eax), %eax
	movl	%eax, (%esp)
.LVL8:
	.p2align 4,,10
	.p2align 3
.L13:
	.loc 1 32 12 view .LVU29
	movl	%edi, %eax
	.p2align 4,,10
	.p2align 3
.L9:
.LVL9:
	.loc 1 36 13 is_stmt 1 view .LVU30
	.loc 1 36 18 is_stmt 0 view .LVU31
	movl	(%edx,%eax,4), %ecx
	.loc 1 36 25 view .LVU32
	movl	4(%edx,%eax,4), %ebp
	.loc 1 36 16 view .LVU33
	cmpl	%ebp, %ecx
	jle	.L8
	.loc 1 37 17 is_stmt 1 view .LVU34
.LVL10:
	.loc 1 38 17 view .LVU35
	.loc 1 38 22 is_stmt 0 view .LVU36
	movl	%ebp, (%edx,%eax,4)
	.loc 1 39 17 is_stmt 1 view .LVU37
	.loc 1 39 26 is_stmt 0 view .LVU38
	movl	%ecx, 4(%edx,%eax,4)
.LVL11:
.L8:
	.loc 1 35 35 is_stmt 1 discriminator 2 view .LVU39
	.loc 1 35 36 is_stmt 0 discriminator 2 view .LVU40
	addl	$1, %eax
.LVL12:
	.loc 1 35 24 is_stmt 1 discriminator 2 view .LVU41
	.loc 1 35 9 is_stmt 0 discriminator 2 view .LVU42
	cmpl	%ebx, %eax
	jl	.L9
	.loc 1 41 9 is_stmt 1 view .LVU43
	.loc 1 41 14 is_stmt 0 view .LVU44
	subl	$1, %ebx
.LVL13:
	.loc 1 42 9 is_stmt 1 view .LVU45
	.loc 1 42 25 view .LVU46
	.loc 1 42 9 is_stmt 0 view .LVU47
	cmpl	%edi, %ebx
	jle	.L10
	movl	(%esp), %eax
	subl	%esi, %eax
.LVL14:
	.p2align 4,,10
	.p2align 3
.L12:
	.loc 1 43 13 is_stmt 1 view .LVU48
	.loc 1 43 18 is_stmt 0 view .LVU49
	movl	(%eax), %ebp
	.loc 1 43 29 view .LVU50
	movl	4(%eax), %ecx
	.loc 1 43 16 view .LVU51
	cmpl	%ecx, %ebp
	jle	.L11
	.loc 1 44 17 is_stmt 1 view .LVU52
.LVL15:
	.loc 1 45 17 view .LVU53
	.loc 1 45 22 is_stmt 0 view .LVU54
	movl	%ebp, 4(%eax)
	.loc 1 46 17 is_stmt 1 view .LVU55
	.loc 1 46 26 is_stmt 0 view .LVU56
	movl	%ecx, (%eax)
.LVL16:
.L11:
	.loc 1 42 35 is_stmt 1 discriminator 2 view .LVU57
	.loc 1 42 25 discriminator 2 view .LVU58
	subl	$4, %eax
	.loc 1 42 9 is_stmt 0 discriminator 2 view .LVU59
	cmpl	%esi, %eax
	jne	.L12
.L10:
	.loc 1 48 9 is_stmt 1 view .LVU60
	.loc 1 48 13 is_stmt 0 view .LVU61
	addl	$1, %edi
.LVL17:
	.loc 1 34 11 is_stmt 1 view .LVU62
	addl	$4, %esi
	cmpl	%edi, %ebx
	jg	.L13
.LVL18:
.L6:
	.loc 1 50 1 is_stmt 0 view .LVU63
	addl	$4, %esp
	.cfi_def_cfa_offset 20
	popl	%ebx
	.cfi_restore 3
	.cfi_def_cfa_offset 16
.LVL19:
	.loc 1 50 1 view .LVU64
	popl	%esi
	.cfi_restore 6
	.cfi_def_cfa_offset 12
	popl	%edi
	.cfi_restore 7
	.cfi_def_cfa_offset 8
	popl	%ebp
	.cfi_restore 5
	.cfi_def_cfa_offset 4
	ret
	.cfi_endproc
.LFE40:
	.size	c_function, .-c_function
	.p2align 4
	.globl	swap
	.type	swap, @function
swap:
.LVL20:
.LFB41:
	.loc 1 53 27 is_stmt 1 view -0
	.cfi_startproc
	.loc 1 53 27 is_stmt 0 view .LVU66
	endbr32
	.loc 1 55 5 is_stmt 1 view .LVU67
	.loc 1 53 27 is_stmt 0 view .LVU68
	pushl	%ebx
	.cfi_def_cfa_offset 8
	.cfi_offset 3, -8
	.loc 1 53 27 view .LVU69
	movl	8(%esp), %edx
	movl	12(%esp), %eax
	.loc 1 55 9 view .LVU70
	movl	(%edx), %ecx
.LVL21:
	.loc 1 56 5 is_stmt 1 view .LVU71
	.loc 1 56 8 is_stmt 0 view .LVU72
	movl	(%eax), %ebx
	movl	%ebx, (%edx)
	.loc 1 57 5 is_stmt 1 view .LVU73
	.loc 1 57 8 is_stmt 0 view .LVU74
	movl	%ecx, (%eax)
	.loc 1 59 1 view .LVU75
	popl	%ebx
	.cfi_restore 3
	.cfi_def_cfa_offset 4
	ret
	.cfi_endproc
.LFE41:
	.size	swap, .-swap
	.p2align 4
	.globl	partition
	.type	partition, @function
partition:
.LVL22:
.LFB42:
	.loc 1 61 47 is_stmt 1 view -0
	.cfi_startproc
	.loc 1 61 47 is_stmt 0 view .LVU77
	endbr32
	.loc 1 63 5 is_stmt 1 view .LVU78
	.loc 1 61 47 is_stmt 0 view .LVU79
	pushl	%ebp
	.cfi_def_cfa_offset 8
	.cfi_offset 5, -8
	pushl	%edi
	.cfi_def_cfa_offset 12
	.cfi_offset 7, -12
	pushl	%esi
	.cfi_def_cfa_offset 16
	.cfi_offset 6, -16
	pushl	%ebx
	.cfi_def_cfa_offset 20
	.cfi_offset 3, -20
	subl	$8, %esp
	.cfi_def_cfa_offset 28
	.loc 1 61 47 view .LVU80
	movl	36(%esp), %edx
	.loc 1 63 22 view .LVU81
	movl	28(%esp), %edi
	.loc 1 61 47 view .LVU82
	movl	32(%esp), %ecx
	.loc 1 63 22 view .LVU83
	leal	0(,%edx,4), %eax
	addl	%eax, %edi
	movl	%edi, 4(%esp)
	.loc 1 63 9 view .LVU84
	movl	(%edi), %esi
.LVL23:
	.loc 1 64 5 is_stmt 1 view .LVU85
	.loc 1 66 5 view .LVU86
.LBB84:
	.loc 1 66 10 view .LVU87
	.loc 1 66 23 view .LVU88
	.loc 1 66 5 is_stmt 0 view .LVU89
	cmpl	%ecx, %edx
	jl	.L24
	movl	28(%esp), %ebx
	movl	28(%esp), %edx
	leal	-1(%ecx), %edi
.LVL24:
	.loc 1 66 5 view .LVU90
	leal	4(%ebx,%eax), %eax
	leal	(%edx,%ecx,4), %edx
	movl	%eax, (%esp)
.LVL25:
	.p2align 4,,10
	.p2align 3
.L23:
	.loc 1 69 9 is_stmt 1 view .LVU91
	.loc 1 69 17 is_stmt 0 view .LVU92
	movl	(%edx), %eax
	movl	%ecx, %ebx
	.loc 1 69 11 view .LVU93
	cmpl	%esi, %eax
	jge	.L22
	.loc 1 70 13 is_stmt 1 view .LVU94
.LVL26:
	.loc 1 71 13 view .LVU95
	movl	28(%esp), %ebx
	leal	(%ebx,%ecx,4), %ebx
.LVL27:
.LBB85:
.LBI85:
	.loc 1 53 6 view .LVU96
.LBB86:
	.loc 1 55 5 view .LVU97
	.loc 1 55 9 is_stmt 0 view .LVU98
	movl	(%ebx), %ebp
.LVL28:
	.loc 1 56 5 is_stmt 1 view .LVU99
	.loc 1 56 8 is_stmt 0 view .LVU100
	movl	%eax, (%ebx)
	.loc 1 57 5 is_stmt 1 view .LVU101
	leal	2(%edi), %ebx
.LVL29:
	.loc 1 57 5 is_stmt 0 view .LVU102
.LBE86:
.LBE85:
	.loc 1 70 14 view .LVU103
	movl	%ecx, %edi
.LVL30:
	.loc 1 70 14 view .LVU104
	addl	$1, %ecx
.LVL31:
.LBB88:
.LBB87:
	.loc 1 57 8 view .LVU105
	movl	%ebp, (%edx)
.LVL32:
.L22:
	.loc 1 57 8 view .LVU106
.LBE87:
.LBE88:
	.loc 1 66 34 is_stmt 1 discriminator 2 view .LVU107
	.loc 1 66 23 discriminator 2 view .LVU108
	addl	$4, %edx
	.loc 1 66 5 is_stmt 0 discriminator 2 view .LVU109
	cmpl	%edx, (%esp)
	jne	.L23
	movl	4(%esp), %eax
	movl	(%eax), %esi
.LVL33:
.L21:
	.loc 1 66 5 discriminator 2 view .LVU110
.LBE84:
	.loc 1 76 5 is_stmt 1 view .LVU111
	movl	28(%esp), %eax
	leal	(%eax,%ecx,4), %eax
.LVL34:
.LBB89:
.LBI89:
	.loc 1 53 6 view .LVU112
.LBB90:
	.loc 1 55 5 view .LVU113
	.loc 1 55 9 is_stmt 0 view .LVU114
	movl	(%eax), %edx
.LVL35:
	.loc 1 56 5 is_stmt 1 view .LVU115
	.loc 1 56 8 is_stmt 0 view .LVU116
	movl	%esi, (%eax)
	.loc 1 57 5 is_stmt 1 view .LVU117
	.loc 1 57 8 is_stmt 0 view .LVU118
	movl	4(%esp), %eax
.LVL36:
	.loc 1 57 8 view .LVU119
	movl	%edx, (%eax)
.LVL37:
	.loc 1 57 8 view .LVU120
.LBE90:
.LBE89:
	.loc 1 78 5 is_stmt 1 view .LVU121
	.loc 1 79 1 is_stmt 0 view .LVU122
	addl	$8, %esp
	.cfi_remember_state
	.cfi_def_cfa_offset 20
	movl	%ebx, %eax
	popl	%ebx
	.cfi_restore 3
	.cfi_def_cfa_offset 16
	popl	%esi
	.cfi_restore 6
	.cfi_def_cfa_offset 12
	popl	%edi
	.cfi_restore 7
	.cfi_def_cfa_offset 8
	popl	%ebp
	.cfi_restore 5
	.cfi_def_cfa_offset 4
	ret
.LVL38:
	.p2align 4,,10
	.p2align 3
.L24:
	.cfi_restore_state
.LBB91:
	.loc 1 66 5 view .LVU123
	movl	%ecx, %ebx
	jmp	.L21
.LBE91:
	.cfi_endproc
.LFE42:
	.size	partition, .-partition
	.p2align 4
	.globl	quicksort
	.type	quicksort, @function
quicksort:
.LVL39:
.LFB43:
	.loc 1 81 48 is_stmt 1 view -0
	.cfi_startproc
	.loc 1 81 48 is_stmt 0 view .LVU125
	endbr32
	.loc 1 83 5 is_stmt 1 view .LVU126
	.loc 1 81 48 is_stmt 0 view .LVU127
	pushl	%ebp
	.cfi_def_cfa_offset 8
	.cfi_offset 5, -8
	pushl	%edi
	.cfi_def_cfa_offset 12
	.cfi_offset 7, -12
	pushl	%esi
	.cfi_def_cfa_offset 16
	.cfi_offset 6, -16
	pushl	%ebx
	.cfi_def_cfa_offset 20
	.cfi_offset 3, -20
	subl	$28, %esp
	.cfi_def_cfa_offset 48
	.loc 1 81 48 view .LVU128
	movl	48(%esp), %esi
	movl	52(%esp), %edi
	.loc 1 83 8 view .LVU129
	cmpl	56(%esp), %edi
	jge	.L27
.LBB100:
.LBB101:
.LBB102:
	.loc 1 63 22 view .LVU130
	movl	56(%esp), %eax
	leal	(%esi,%eax,4), %ebp
.LVL40:
.L31:
	.loc 1 63 22 view .LVU131
.LBE102:
.LBE101:
	.loc 1 84 9 is_stmt 1 view .LVU132
.LBB113:
.LBI101:
	.loc 1 61 5 view .LVU133
.LBB111:
	.loc 1 63 5 view .LVU134
	.loc 1 63 9 is_stmt 0 view .LVU135
	movl	0(%ebp), %eax
	.loc 1 64 9 view .LVU136
	movl	%edi, 52(%esp)
	leal	-1(%edi), %ebx
	.loc 1 63 9 view .LVU137
	movl	%eax, 12(%esp)
.LVL41:
	.loc 1 64 5 is_stmt 1 view .LVU138
	.loc 1 66 5 view .LVU139
.LBB103:
	.loc 1 66 10 view .LVU140
	.loc 1 66 23 view .LVU141
.LBE103:
	.loc 1 64 9 is_stmt 0 view .LVU142
	movl	%edi, %eax
.LVL42:
	.p2align 4,,10
	.p2align 3
.L30:
.LBB106:
	.loc 1 69 9 is_stmt 1 view .LVU143
	.loc 1 69 17 is_stmt 0 view .LVU144
	movl	(%esi,%eax,4), %ecx
	.loc 1 69 11 view .LVU145
	cmpl	%ecx, 12(%esp)
	jle	.L29
	.loc 1 70 13 is_stmt 1 view .LVU146
	.loc 1 70 14 is_stmt 0 view .LVU147
	addl	$1, %ebx
.LVL43:
	.loc 1 71 13 is_stmt 1 view .LVU148
	leal	(%esi,%ebx,4), %edx
.LVL44:
.LBB104:
.LBI104:
	.loc 1 53 6 view .LVU149
.LBB105:
	.loc 1 55 5 view .LVU150
	.loc 1 55 9 is_stmt 0 view .LVU151
	movl	(%edx), %edi
.LVL45:
	.loc 1 56 5 is_stmt 1 view .LVU152
	.loc 1 56 8 is_stmt 0 view .LVU153
	movl	%ecx, (%edx)
	.loc 1 57 5 is_stmt 1 view .LVU154
	.loc 1 57 8 is_stmt 0 view .LVU155
	movl	%edi, (%esi,%eax,4)
.LVL46:
.L29:
	.loc 1 57 8 view .LVU156
.LBE105:
.LBE104:
	.loc 1 66 34 is_stmt 1 view .LVU157
	.loc 1 66 35 is_stmt 0 view .LVU158
	addl	$1, %eax
.LVL47:
	.loc 1 66 23 is_stmt 1 view .LVU159
	.loc 1 66 5 is_stmt 0 view .LVU160
	cmpl	%eax, 56(%esp)
	jge	.L30
	.loc 1 66 5 view .LVU161
.LBE106:
	.loc 1 76 5 view .LVU162
	leal	4(%esi,%ebx,4), %eax
.LVL48:
	.loc 1 76 5 view .LVU163
	movl	52(%esp), %edi
	.loc 1 76 5 is_stmt 1 view .LVU164
.LVL49:
.LBB107:
.LBI107:
	.loc 1 53 6 view .LVU165
.LBB108:
	.loc 1 55 5 view .LVU166
	.loc 1 56 10 is_stmt 0 view .LVU167
	movl	0(%ebp), %ecx
.LBE108:
.LBE107:
.LBE111:
.LBE113:
	.loc 1 86 9 view .LVU168
	subl	$4, %esp
	.cfi_def_cfa_offset 52
.LBB114:
.LBB112:
.LBB110:
.LBB109:
	.loc 1 55 9 view .LVU169
	movl	(%eax), %edx
.LVL50:
	.loc 1 56 5 is_stmt 1 view .LVU170
	.loc 1 56 8 is_stmt 0 view .LVU171
	movl	%ecx, (%eax)
	.loc 1 57 5 is_stmt 1 view .LVU172
	.loc 1 57 8 is_stmt 0 view .LVU173
	movl	%edx, 0(%ebp)
.LVL51:
	.loc 1 57 8 view .LVU174
.LBE109:
.LBE110:
	.loc 1 78 5 is_stmt 1 view .LVU175
	.loc 1 78 5 is_stmt 0 view .LVU176
.LBE112:
.LBE114:
	.loc 1 86 9 is_stmt 1 view .LVU177
	pushl	%ebx
	.cfi_def_cfa_offset 56
	pushl	%edi
	.cfi_def_cfa_offset 60
	.loc 1 87 9 is_stmt 0 view .LVU178
	leal	2(%ebx), %edi
	.loc 1 86 9 view .LVU179
	pushl	%esi
	.cfi_def_cfa_offset 64
	call	quicksort
.LVL52:
	.loc 1 87 9 is_stmt 1 view .LVU180
.LBE100:
	.loc 1 83 5 view .LVU181
	.loc 1 83 8 is_stmt 0 view .LVU182
	addl	$16, %esp
	.cfi_def_cfa_offset 48
	cmpl	56(%esp), %edi
	jl	.L31
.LVL53:
.L27:
	.loc 1 90 1 view .LVU183
	addl	$28, %esp
	.cfi_def_cfa_offset 20
	popl	%ebx
	.cfi_restore 3
	.cfi_def_cfa_offset 16
	popl	%esi
	.cfi_restore 6
	.cfi_def_cfa_offset 12
	popl	%edi
	.cfi_restore 7
	.cfi_def_cfa_offset 8
	popl	%ebp
	.cfi_restore 5
	.cfi_def_cfa_offset 4
	ret
	.cfi_endproc
.LFE43:
	.size	quicksort, .-quicksort
	.p2align 4
	.globl	create_array
	.type	create_array, @function
create_array:
.LVL54:
.LFB44:
	.loc 1 95 1 is_stmt 1 view -0
	.cfi_startproc
	.loc 1 95 1 is_stmt 0 view .LVU185
	endbr32
	.loc 1 96 5 is_stmt 1 view .LVU186
	.loc 1 95 1 is_stmt 0 view .LVU187
	pushl	%ebp
	.cfi_def_cfa_offset 8
	.cfi_offset 5, -8
	pushl	%edi
	.cfi_def_cfa_offset 12
	.cfi_offset 7, -12
	pushl	%esi
	.cfi_def_cfa_offset 16
	.cfi_offset 6, -16
	pushl	%ebx
	.cfi_def_cfa_offset 20
	.cfi_offset 3, -20
	call	__x86.get_pc_thunk.bx
	addl	$_GLOBAL_OFFSET_TABLE_, %ebx
	subl	$40, %esp
	.cfi_def_cfa_offset 60
	.loc 1 95 1 view .LVU188
	movl	60(%esp), %esi
	.loc 1 96 14 view .LVU189
	leal	0(,%esi,4), %ebp
	pushl	%ebp
	.cfi_def_cfa_offset 64
	call	malloc@PLT
.LVL55:
	.loc 1 97 14 view .LVU190
	movl	%ebp, (%esp)
	.loc 1 96 14 view .LVU191
	movl	%eax, 28(%esp)
	movl	%eax, %edi
.LVL56:
	.loc 1 97 5 is_stmt 1 view .LVU192
	.loc 1 97 14 is_stmt 0 view .LVU193
	call	malloc@PLT
.LVL57:
	.loc 1 98 5 is_stmt 1 view .LVU194
	.loc 1 100 5 view .LVU195
	movl	$2132378, (%esp)
	.loc 1 97 14 is_stmt 0 view .LVU196
	movl	%eax, 24(%esp)
.LVL58:
	.loc 1 100 5 view .LVU197
	call	srand@PLT
.LVL59:
	.loc 1 102 5 is_stmt 1 view .LVU198
.LBB115:
	.loc 1 102 9 view .LVU199
	.loc 1 102 20 view .LVU200
	.loc 1 102 5 is_stmt 0 view .LVU201
	addl	$16, %esp
	.cfi_def_cfa_offset 48
	testl	%esi, %esi
	jle	.L36
	movl	%edi, %ecx
	movl	%edi, %esi
	movl	8(%esp), %edi
.LVL60:
	.loc 1 102 5 view .LVU202
	addl	%ecx, %ebp
.LVL61:
	.p2align 4,,10
	.p2align 3
.L37:
	.loc 1 104 9 is_stmt 1 discriminator 3 view .LVU203
	.loc 1 104 13 is_stmt 0 discriminator 3 view .LVU204
	call	rand@PLT
.LVL62:
	addl	$4, %esi
	addl	$4, %edi
	.loc 1 104 11 discriminator 3 view .LVU205
	cltd
	idivl	52(%esp)
.LVL63:
	.loc 1 105 9 is_stmt 1 discriminator 3 view .LVU206
	.loc 1 105 14 is_stmt 0 discriminator 3 view .LVU207
	movl	%edx, -4(%esi)
	.loc 1 106 9 is_stmt 1 discriminator 3 view .LVU208
	.loc 1 106 14 is_stmt 0 discriminator 3 view .LVU209
	movl	%edx, -4(%edi)
	.loc 1 102 29 is_stmt 1 discriminator 3 view .LVU210
	.loc 1 102 20 discriminator 3 view .LVU211
	.loc 1 102 5 is_stmt 0 discriminator 3 view .LVU212
	cmpl	%ebp, %esi
	jne	.L37
.LVL64:
.L36:
	.loc 1 102 5 discriminator 3 view .LVU213
.LBE115:
	.loc 1 109 5 is_stmt 1 view .LVU214
	.loc 1 109 15 is_stmt 0 view .LVU215
	subl	$12, %esp
	.cfi_def_cfa_offset 60
	pushl	$8
	.cfi_def_cfa_offset 64
	call	malloc@PLT
.LVL65:
	.loc 1 110 5 is_stmt 1 view .LVU216
	.loc 1 110 10 is_stmt 0 view .LVU217
	movl	28(%esp), %ecx
	movl	%ecx, (%eax)
	.loc 1 111 5 is_stmt 1 view .LVU218
	.loc 1 111 10 is_stmt 0 view .LVU219
	movl	24(%esp), %ecx
	movl	%ecx, 4(%eax)
	.loc 1 113 5 is_stmt 1 view .LVU220
	.loc 1 114 1 is_stmt 0 view .LVU221
	addl	$44, %esp
	.cfi_def_cfa_offset 20
	popl	%ebx
	.cfi_restore 3
	.cfi_def_cfa_offset 16
	popl	%esi
	.cfi_restore 6
	.cfi_def_cfa_offset 12
	popl	%edi
	.cfi_restore 7
	.cfi_def_cfa_offset 8
	popl	%ebp
	.cfi_restore 5
	.cfi_def_cfa_offset 4
	ret
	.cfi_endproc
.LFE44:
	.size	create_array, .-create_array
	.section	.rodata.str1.1,"aMS",@progbits,1
.LC0:
	.string	"\n=========Quicksort========"
.LC1:
	.string	"Array length: %d\n"
.LC2:
	.string	"Sorting in C"
.LC5:
	.string	"C time: %f\n"
.LC6:
	.string	"Sorting in assembly"
.LC7:
	.string	"Asm time: %f\n"
.LC8:
	.string	"==========================="
.LC9:
	.string	"\n=======Cocktail-Sort======="
	.section	.text.startup,"ax",@progbits
	.p2align 4
	.globl	main
	.type	main, @function
main:
.LVL66:
.LFB45:
	.loc 1 117 1 is_stmt 1 view -0
	.cfi_startproc
	.loc 1 117 1 is_stmt 0 view .LVU223
	endbr32
	leal	4(%esp), %ecx
	.cfi_def_cfa 1, 0
	andl	$-16, %esp
	pushl	-4(%ecx)
	pushl	%ebp
	.cfi_escape 0x10,0x5,0x2,0x75,0
	movl	%esp, %ebp
	pushl	%edi
	pushl	%esi
	pushl	%ebx
	.cfi_escape 0x10,0x7,0x2,0x75,0x7c
	.cfi_escape 0x10,0x6,0x2,0x75,0x78
	.cfi_escape 0x10,0x3,0x2,0x75,0x74
	call	__x86.get_pc_thunk.bx
	addl	$_GLOBAL_OFFSET_TABLE_, %ebx
	pushl	%ecx
	.cfi_escape 0xf,0x3,0x75,0x70,0x6
	subl	$100, %esp
	.loc 1 117 1 view .LVU224
	movl	%gs:20, %eax
	movl	%eax, -28(%ebp)
	xorl	%eax, %eax
	.loc 1 120 5 is_stmt 1 view .LVU225
	.loc 1 120 11 is_stmt 0 view .LVU226
	pushl	$0
	call	time@PLT
.LVL67:
	.loc 1 120 5 view .LVU227
	movl	%eax, (%esp)
	call	srand@PLT
.LVL68:
	.loc 1 121 5 is_stmt 1 view .LVU228
	.loc 1 122 5 view .LVU229
	.loc 1 124 5 view .LVU230
.LBB116:
.LBI116:
	.file 2 "/usr/include/bits/stdio2.h"
	.loc 2 105 1 view .LVU231
.LBB117:
	.loc 2 107 3 view .LVU232
	.loc 2 107 10 is_stmt 0 view .LVU233
	leal	.LC0@GOTOFF(%ebx), %eax
	movl	%eax, (%esp)
	call	puts@PLT
.LVL69:
	.loc 2 107 10 view .LVU234
.LBE117:
.LBE116:
	.loc 1 126 5 is_stmt 1 view .LVU235
	.loc 1 128 5 view .LVU236
	.loc 1 128 24 is_stmt 0 view .LVU237
	popl	%edi
	popl	%eax
	pushl	$20000
	pushl	$20000
.LBB118:
.LBB119:
	.loc 2 107 10 view .LVU238
	leal	.LC1@GOTOFF(%ebx), %edi
.LBE119:
.LBE118:
	.loc 1 128 24 view .LVU239
	call	create_array
.LVL70:
.LBB124:
.LBB120:
	.loc 2 107 10 view .LVU240
	addl	$12, %esp
	movl	%edi, -80(%ebp)
	pushl	$20000
.LBE120:
.LBE124:
	.loc 1 128 24 view .LVU241
	movl	%eax, %esi
.LBB125:
.LBB121:
	.loc 2 107 10 view .LVU242
	pushl	%edi
.LBE121:
.LBE125:
.LBB126:
.LBB127:
	leal	.LC2@GOTOFF(%ebx), %edi
.LBE127:
.LBE126:
.LBB130:
.LBB122:
	pushl	$1
.LBE122:
.LBE130:
	.loc 1 128 24 view .LVU243
	movl	%eax, -52(%ebp)
.LVL71:
	.loc 1 130 5 is_stmt 1 view .LVU244
	.loc 1 132 5 view .LVU245
.LBB131:
.LBI118:
	.loc 2 105 1 view .LVU246
.LBB123:
	.loc 2 107 3 view .LVU247
	.loc 2 107 10 is_stmt 0 view .LVU248
	call	__printf_chk@PLT
.LVL72:
	.loc 2 107 10 view .LVU249
.LBE123:
.LBE131:
	.loc 1 134 5 is_stmt 1 view .LVU250
.LBB132:
.LBI126:
	.loc 2 105 1 view .LVU251
.LBB128:
	.loc 2 107 3 view .LVU252
	.loc 2 107 10 is_stmt 0 view .LVU253
	movl	%edi, (%esp)
	movl	%edi, -84(%ebp)
.LBE128:
.LBE132:
.LBB133:
.LBB134:
	.loc 1 15 14 view .LVU254
	leal	-36(%ebp), %edi
.LBE134:
.LBE133:
.LBB139:
.LBB129:
	.loc 2 107 10 view .LVU255
	call	puts@PLT
.LVL73:
	.loc 2 107 10 view .LVU256
.LBE129:
.LBE139:
	.loc 1 135 5 is_stmt 1 view .LVU257
.LBB140:
.LBI133:
	.loc 1 9 20 view .LVU258
.LBB135:
	.loc 1 11 5 view .LVU259
	.loc 1 12 5 view .LVU260
	.loc 1 13 5 view .LVU261
	.loc 1 15 5 view .LVU262
	.loc 1 15 14 is_stmt 0 view .LVU263
	popl	%eax
	popl	%edx
	pushl	$0
	pushl	%edi
	movl	%edi, -48(%ebp)
	call	gettimeofday@PLT
.LVL74:
	.loc 1 16 5 is_stmt 1 view .LVU264
	.loc 1 17 5 view .LVU265
	.loc 1 18 5 view .LVU266
	.loc 1 20 5 view .LVU267
	.loc 1 20 5 is_stmt 0 view .LVU268
.LBE135:
.LBE140:
	.loc 1 136 5 is_stmt 1 view .LVU269
.LBB141:
.LBB136:
	.loc 1 17 11 is_stmt 0 view .LVU270
	movl	$1000000, %ecx
.LBE136:
.LBE141:
	.loc 1 136 5 view .LVU271
	addl	$12, %esp
.LBB142:
.LBB137:
	.loc 1 17 11 view .LVU272
	movl	%ecx, %eax
	imull	-36(%ebp)
.LBE137:
.LBE142:
	.loc 1 136 5 view .LVU273
	pushl	$19999
	pushl	$0
	pushl	(%esi)
.LBB143:
.LBB138:
	.loc 1 17 11 view .LVU274
	movl	%eax, -64(%ebp)
.LVL75:
	.loc 1 18 16 view .LVU275
	movl	-32(%ebp), %eax
	.loc 1 17 11 view .LVU276
	movl	%edx, -60(%ebp)
	movl	%ecx, -56(%ebp)
	.loc 1 18 16 view .LVU277
	movl	%eax, -72(%ebp)
	sarl	$31, %eax
	movl	%eax, -68(%ebp)
.LBE138:
.LBE143:
	.loc 1 136 5 view .LVU278
	call	quicksort
.LVL76:
	.loc 1 137 5 is_stmt 1 view .LVU279
.LBB144:
.LBI144:
	.loc 1 9 20 view .LVU280
.LBB145:
	.loc 1 11 5 view .LVU281
	.loc 1 12 5 view .LVU282
	.loc 1 13 5 view .LVU283
	.loc 1 15 5 view .LVU284
	.loc 1 15 14 is_stmt 0 view .LVU285
	popl	%ecx
	popl	%esi
.LVL77:
	.loc 1 15 14 view .LVU286
	pushl	$0
	pushl	%edi
	call	gettimeofday@PLT
.LVL78:
	.loc 1 16 5 is_stmt 1 view .LVU287
	.loc 1 17 5 view .LVU288
	.loc 1 18 5 view .LVU289
	.loc 1 18 16 is_stmt 0 view .LVU290
	movl	-32(%ebp), %esi
	.loc 1 17 11 view .LVU291
	movl	-56(%ebp), %ecx
	.loc 1 18 16 view .LVU292
	movl	%esi, %edi
.LVL79:
	.loc 1 17 11 view .LVU293
	movl	%ecx, %eax
	.loc 1 18 16 view .LVU294
	sarl	$31, %edi
	.loc 1 17 11 view .LVU295
	imull	-36(%ebp)
	subl	-72(%ebp), %eax
	sbbl	-68(%ebp), %edx
.LVL80:
	.loc 1 20 5 is_stmt 1 view .LVU296
	.loc 1 20 5 is_stmt 0 view .LVU297
.LBE145:
.LBE144:
	.loc 1 138 5 is_stmt 1 view .LVU298
	.loc 1 139 5 view .LVU299
.LBB146:
.LBI146:
	.loc 2 105 1 view .LVU300
.LBB147:
	.loc 2 107 3 view .LVU301
.LBE147:
.LBE146:
	.loc 1 138 26 is_stmt 0 view .LVU302
	addl	%eax, %esi
.LVL81:
	.loc 1 138 26 view .LVU303
	adcl	%edx, %edi
	subl	-64(%ebp), %esi
	sbbl	-60(%ebp), %edi
	.loc 1 138 13 view .LVU304
	movl	%esi, -64(%ebp)
	movl	%edi, -60(%ebp)
	fildq	-64(%ebp)
	testl	%edi, %edi
	jns	.L41
	fadds	.LC3@GOTOFF(%ebx)
.L41:
	fstps	-64(%ebp)
	flds	-64(%ebp)
	.loc 1 138 11 view .LVU305
	fdivs	.LC4@GOTOFF(%ebx)
.LBB149:
.LBB148:
	.loc 2 107 10 view .LVU306
	subl	$8, %esp
	leal	.LC5@GOTOFF(%ebx), %eax
	movl	%eax, -88(%ebp)
	fstpl	(%esp)
	pushl	%eax
	pushl	$1
	call	__printf_chk@PLT
.LVL82:
	.loc 2 107 10 view .LVU307
.LBE148:
.LBE149:
	.loc 1 141 5 is_stmt 1 view .LVU308
.LBB150:
.LBI150:
	.loc 2 105 1 view .LVU309
.LBB151:
	.loc 2 107 3 view .LVU310
	.loc 2 107 10 is_stmt 0 view .LVU311
	addl	$20, %esp
	leal	.LC6@GOTOFF(%ebx), %eax
	pushl	%eax
	movl	%eax, -56(%ebp)
	call	puts@PLT
.LVL83:
	.loc 2 107 10 view .LVU312
.LBE151:
.LBE150:
	.loc 1 142 5 is_stmt 1 view .LVU313
.LBB152:
.LBI152:
	.loc 1 9 20 view .LVU314
.LBB153:
	.loc 1 11 5 view .LVU315
	.loc 1 12 5 view .LVU316
	.loc 1 13 5 view .LVU317
	.loc 1 15 5 view .LVU318
	.loc 1 15 14 is_stmt 0 view .LVU319
	movl	-48(%ebp), %edi
	popl	%eax
	popl	%edx
	pushl	$0
	pushl	%edi
	call	gettimeofday@PLT
.LVL84:
	.loc 1 16 5 is_stmt 1 view .LVU320
	.loc 1 17 5 view .LVU321
	.loc 1 18 5 view .LVU322
	.loc 1 20 5 view .LVU323
	.loc 1 20 5 is_stmt 0 view .LVU324
.LBE153:
.LBE152:
	.loc 1 143 5 is_stmt 1 view .LVU325
.LBB158:
.LBB154:
	.loc 1 17 11 is_stmt 0 view .LVU326
	movl	$1000000, %ecx
.LBE154:
.LBE158:
	.loc 1 143 5 view .LVU327
	addl	$12, %esp
.LBB159:
.LBB155:
	.loc 1 17 11 view .LVU328
	movl	%ecx, %eax
	imull	-36(%ebp)
	movl	%ecx, -76(%ebp)
.LBE155:
.LBE159:
	.loc 1 143 5 view .LVU329
	movl	-52(%ebp), %ecx
	pushl	$19999
	pushl	$0
.LBB160:
.LBB156:
	.loc 1 17 11 view .LVU330
	movl	%eax, -64(%ebp)
.LVL85:
	.loc 1 18 16 view .LVU331
	movl	-32(%ebp), %eax
.LBE156:
.LBE160:
	.loc 1 143 5 view .LVU332
	pushl	4(%ecx)
.LBB161:
.LBB157:
	.loc 1 18 16 view .LVU333
	movl	%eax, -72(%ebp)
	sarl	$31, %eax
	.loc 1 17 11 view .LVU334
	movl	%edx, -60(%ebp)
	.loc 1 18 16 view .LVU335
	movl	%eax, -68(%ebp)
.LBE157:
.LBE161:
	.loc 1 143 5 view .LVU336
	call	asmqs_function@PLT
.LVL86:
	.loc 1 144 5 is_stmt 1 view .LVU337
.LBB162:
.LBI162:
	.loc 1 9 20 view .LVU338
.LBB163:
	.loc 1 11 5 view .LVU339
	.loc 1 12 5 view .LVU340
	.loc 1 13 5 view .LVU341
	.loc 1 15 5 view .LVU342
	.loc 1 15 14 is_stmt 0 view .LVU343
	popl	%ecx
	popl	%esi
	pushl	$0
	pushl	%edi
	call	gettimeofday@PLT
.LVL87:
	.loc 1 16 5 is_stmt 1 view .LVU344
	.loc 1 17 5 view .LVU345
	.loc 1 18 5 view .LVU346
	.loc 1 18 16 is_stmt 0 view .LVU347
	movl	-32(%ebp), %esi
	.loc 1 17 11 view .LVU348
	movl	-76(%ebp), %ecx
	.loc 1 18 16 view .LVU349
	movl	%esi, %edi
	.loc 1 17 11 view .LVU350
	movl	%ecx, %eax
	.loc 1 18 16 view .LVU351
	sarl	$31, %edi
	.loc 1 17 11 view .LVU352
	imull	-36(%ebp)
	subl	-72(%ebp), %eax
	sbbl	-68(%ebp), %edx
.LVL88:
	.loc 1 20 5 is_stmt 1 view .LVU353
	.loc 1 20 5 is_stmt 0 view .LVU354
.LBE163:
.LBE162:
	.loc 1 145 5 is_stmt 1 view .LVU355
	.loc 1 146 5 view .LVU356
.LBB164:
.LBI164:
	.loc 2 105 1 view .LVU357
.LBB165:
	.loc 2 107 3 view .LVU358
.LBE165:
.LBE164:
	.loc 1 145 26 is_stmt 0 view .LVU359
	addl	%eax, %esi
.LVL89:
	.loc 1 145 26 view .LVU360
	adcl	%edx, %edi
	subl	-64(%ebp), %esi
	sbbl	-60(%ebp), %edi
	.loc 1 145 13 view .LVU361
	movl	%esi, -64(%ebp)
	movl	%edi, -60(%ebp)
	fildq	-64(%ebp)
	testl	%edi, %edi
	jns	.L42
	fadds	.LC3@GOTOFF(%ebx)
.L42:
	fstps	-64(%ebp)
	flds	-64(%ebp)
	.loc 1 145 11 view .LVU362
	fdivs	.LC4@GOTOFF(%ebx)
.LBB167:
.LBB166:
	.loc 2 107 10 view .LVU363
	subl	$8, %esp
	leal	.LC7@GOTOFF(%ebx), %ecx
	movl	%ecx, -92(%ebp)
	fstpl	(%esp)
	pushl	%ecx
	pushl	$1
	call	__printf_chk@PLT
.LVL90:
	.loc 2 107 10 view .LVU364
.LBE166:
.LBE167:
	.loc 1 148 5 is_stmt 1 view .LVU365
	addl	$20, %esp
	pushl	-52(%ebp)
	call	free@PLT
.LVL91:
	.loc 1 150 5 view .LVU366
.LBB168:
.LBI168:
	.loc 2 105 1 view .LVU367
.LBB169:
	.loc 2 107 3 view .LVU368
	.loc 2 107 10 is_stmt 0 view .LVU369
	leal	.LC8@GOTOFF(%ebx), %eax
	movl	%eax, (%esp)
	movl	%eax, -76(%ebp)
	call	puts@PLT
.LVL92:
	.loc 2 107 10 view .LVU370
.LBE169:
.LBE168:
	.loc 1 154 5 is_stmt 1 view .LVU371
.LBB170:
.LBI170:
	.loc 2 105 1 view .LVU372
.LBB171:
	.loc 2 107 3 view .LVU373
	.loc 2 107 10 is_stmt 0 view .LVU374
	leal	.LC9@GOTOFF(%ebx), %eax
	movl	%eax, (%esp)
	call	puts@PLT
.LVL93:
	.loc 2 107 10 view .LVU375
.LBE171:
.LBE170:
	.loc 1 156 5 is_stmt 1 view .LVU376
	.loc 1 158 5 view .LVU377
	.loc 1 158 27 is_stmt 0 view .LVU378
	popl	%ecx
	popl	%esi
	pushl	$20000
	pushl	$20000
	call	create_array
.LVL94:
.LBB172:
.LBB173:
	.loc 2 107 10 view .LVU379
	addl	$12, %esp
	pushl	$20000
.LBE173:
.LBE172:
	.loc 1 158 27 view .LVU380
	movl	%eax, %edi
.LBB176:
.LBB174:
	.loc 2 107 10 view .LVU381
	pushl	-80(%ebp)
	pushl	$1
.LBE174:
.LBE176:
	.loc 1 158 27 view .LVU382
	movl	%eax, -52(%ebp)
.LVL95:
	.loc 1 160 5 is_stmt 1 view .LVU383
.LBB177:
.LBI172:
	.loc 2 105 1 view .LVU384
.LBB175:
	.loc 2 107 3 view .LVU385
	.loc 2 107 10 is_stmt 0 view .LVU386
	call	__printf_chk@PLT
.LVL96:
	.loc 2 107 10 view .LVU387
.LBE175:
.LBE177:
	.loc 1 163 5 is_stmt 1 view .LVU388
.LBB178:
.LBI178:
	.loc 1 9 20 view .LVU389
.LBB179:
	.loc 1 11 5 view .LVU390
	.loc 1 12 5 view .LVU391
	.loc 1 13 5 view .LVU392
	.loc 1 15 5 view .LVU393
	.loc 1 15 14 is_stmt 0 view .LVU394
	movl	-48(%ebp), %esi
	popl	%eax
	popl	%edx
	pushl	$0
	pushl	%esi
	call	gettimeofday@PLT
.LVL97:
	.loc 1 16 5 is_stmt 1 view .LVU395
	.loc 1 17 5 view .LVU396
	.loc 1 18 5 view .LVU397
	.loc 1 20 5 view .LVU398
	.loc 1 20 5 is_stmt 0 view .LVU399
.LBE179:
.LBE178:
	.loc 1 164 5 is_stmt 1 view .LVU400
.LBB182:
.LBI182:
	.loc 2 105 1 view .LVU401
.LBB183:
	.loc 2 107 3 view .LVU402
.LBE183:
.LBE182:
.LBB186:
.LBB180:
	.loc 1 17 11 is_stmt 0 view .LVU403
	movl	$1000000, %eax
	imull	-36(%ebp)
.LBE180:
.LBE186:
.LBB187:
.LBB184:
	.loc 2 107 10 view .LVU404
	popl	%ecx
	pushl	-56(%ebp)
.LBE184:
.LBE187:
.LBB188:
.LBB181:
	.loc 1 17 11 view .LVU405
	movl	%eax, -64(%ebp)
.LVL98:
	.loc 1 18 16 view .LVU406
	movl	-32(%ebp), %eax
	.loc 1 17 11 view .LVU407
	movl	%edx, -60(%ebp)
	.loc 1 18 16 view .LVU408
	movl	%eax, -72(%ebp)
	sarl	$31, %eax
	movl	%eax, -68(%ebp)
.LBE181:
.LBE188:
.LBB189:
.LBB185:
	.loc 2 107 10 view .LVU409
	call	puts@PLT
.LVL99:
	.loc 2 107 10 view .LVU410
.LBE185:
.LBE189:
	.loc 1 165 6 is_stmt 1 view .LVU411
	popl	%eax
	popl	%edx
	pushl	$20000
	pushl	4(%edi)
	call	asm_function@PLT
.LVL100:
	.loc 1 166 5 view .LVU412
.LBB190:
.LBI190:
	.loc 1 9 20 view .LVU413
.LBB191:
	.loc 1 11 5 view .LVU414
	.loc 1 12 5 view .LVU415
	.loc 1 13 5 view .LVU416
	.loc 1 15 5 view .LVU417
	.loc 1 15 14 is_stmt 0 view .LVU418
	popl	%ecx
	popl	%edi
.LVL101:
	.loc 1 15 14 view .LVU419
	pushl	$0
	pushl	%esi
	call	gettimeofday@PLT
.LVL102:
	.loc 1 16 5 is_stmt 1 view .LVU420
	.loc 1 17 5 view .LVU421
	.loc 1 18 5 view .LVU422
	.loc 1 18 16 is_stmt 0 view .LVU423
	movl	-32(%ebp), %esi
	.loc 1 17 11 view .LVU424
	movl	$1000000, %eax
	imull	-36(%ebp)
.LBE191:
.LBE190:
	.loc 1 167 13 view .LVU425
	movl	-92(%ebp), %ecx
.LBB193:
.LBB192:
	.loc 1 18 16 view .LVU426
	movl	%esi, %edi
	sarl	$31, %edi
	subl	-72(%ebp), %eax
	sbbl	-68(%ebp), %edx
.LVL103:
	.loc 1 20 5 is_stmt 1 view .LVU427
	.loc 1 20 5 is_stmt 0 view .LVU428
.LBE192:
.LBE193:
	.loc 1 167 5 is_stmt 1 view .LVU429
	.loc 1 168 5 view .LVU430
.LBB194:
.LBI194:
	.loc 2 105 1 view .LVU431
.LBB195:
	.loc 2 107 3 view .LVU432
.LBE195:
.LBE194:
	.loc 1 167 26 is_stmt 0 view .LVU433
	addl	%eax, %esi
.LVL104:
	.loc 1 167 26 view .LVU434
	adcl	%edx, %edi
	subl	-64(%ebp), %esi
	sbbl	-60(%ebp), %edi
	.loc 1 167 13 view .LVU435
	testl	%edi, %edi
	movl	%esi, -64(%ebp)
	movl	%edi, -60(%ebp)
	fildq	-64(%ebp)
	jns	.L43
	fadds	.LC3@GOTOFF(%ebx)
.L43:
	fstps	-64(%ebp)
	flds	-64(%ebp)
	.loc 1 167 11 view .LVU436
	fdivs	.LC4@GOTOFF(%ebx)
.LBB197:
.LBB196:
	.loc 2 107 10 view .LVU437
	subl	$8, %esp
	fstpl	(%esp)
	pushl	%ecx
	pushl	$1
	call	__printf_chk@PLT
.LVL105:
	.loc 2 107 10 view .LVU438
.LBE196:
.LBE197:
	.loc 1 171 5 is_stmt 1 view .LVU439
.LBB198:
.LBI198:
	.loc 1 9 20 view .LVU440
.LBB199:
	.loc 1 11 5 view .LVU441
	.loc 1 12 5 view .LVU442
	.loc 1 13 5 view .LVU443
	.loc 1 15 5 view .LVU444
	.loc 1 15 14 is_stmt 0 view .LVU445
	movl	-48(%ebp), %edi
	addl	$24, %esp
	pushl	$0
	pushl	%edi
	call	gettimeofday@PLT
.LVL106:
	.loc 1 16 5 is_stmt 1 view .LVU446
	.loc 1 17 5 view .LVU447
	.loc 1 18 5 view .LVU448
	.loc 1 20 5 view .LVU449
	.loc 1 20 5 is_stmt 0 view .LVU450
.LBE199:
.LBE198:
	.loc 1 172 5 is_stmt 1 view .LVU451
.LBB202:
.LBI202:
	.loc 2 105 1 view .LVU452
.LBB203:
	.loc 2 107 3 view .LVU453
.LBE203:
.LBE202:
.LBB206:
.LBB200:
	.loc 1 17 11 is_stmt 0 view .LVU454
	movl	$1000000, %ecx
	movl	%ecx, %eax
	imull	-36(%ebp)
	movl	%ecx, -72(%ebp)
	movl	%eax, -48(%ebp)
.LVL107:
	.loc 1 18 16 view .LVU455
	movl	-32(%ebp), %eax
	.loc 1 17 11 view .LVU456
	movl	%edx, -44(%ebp)
.LBE200:
.LBE206:
.LBB207:
.LBB204:
	.loc 2 107 10 view .LVU457
	popl	%edx
	pushl	-84(%ebp)
.LBE204:
.LBE207:
.LBB208:
.LBB201:
	.loc 1 18 16 view .LVU458
	movl	%eax, -64(%ebp)
	sarl	$31, %eax
	movl	%eax, -60(%ebp)
.LBE201:
.LBE208:
.LBB209:
.LBB205:
	.loc 2 107 10 view .LVU459
	call	puts@PLT
.LVL108:
	.loc 2 107 10 view .LVU460
.LBE205:
.LBE209:
	.loc 1 173 9 is_stmt 1 view .LVU461
	popl	%ecx
	movl	-52(%ebp), %ecx
	popl	%esi
	pushl	$20000
	pushl	(%ecx)
	call	c_function
.LVL109:
	.loc 1 174 5 view .LVU462
.LBB210:
.LBI210:
	.loc 1 9 20 view .LVU463
.LBB211:
	.loc 1 11 5 view .LVU464
	.loc 1 12 5 view .LVU465
	.loc 1 13 5 view .LVU466
	.loc 1 15 5 view .LVU467
	.loc 1 15 14 is_stmt 0 view .LVU468
	popl	%eax
	popl	%edx
	pushl	$0
	pushl	%edi
	call	gettimeofday@PLT
.LVL110:
	.loc 1 16 5 is_stmt 1 view .LVU469
	.loc 1 17 5 view .LVU470
	.loc 1 18 5 view .LVU471
	.loc 1 18 16 is_stmt 0 view .LVU472
	movl	-32(%ebp), %esi
	.loc 1 17 11 view .LVU473
	movl	-72(%ebp), %ecx
	.loc 1 18 16 view .LVU474
	movl	%esi, %edi
	.loc 1 17 11 view .LVU475
	movl	%ecx, %eax
	.loc 1 18 16 view .LVU476
	sarl	$31, %edi
	.loc 1 17 11 view .LVU477
	imull	-36(%ebp)
	subl	-64(%ebp), %eax
	sbbl	-60(%ebp), %edx
.LVL111:
	.loc 1 20 5 is_stmt 1 view .LVU478
	.loc 1 20 5 is_stmt 0 view .LVU479
.LBE211:
.LBE210:
	.loc 1 175 5 is_stmt 1 view .LVU480
	.loc 1 176 5 view .LVU481
.LBB212:
.LBI212:
	.loc 2 105 1 view .LVU482
.LBB213:
	.loc 2 107 3 view .LVU483
.LBE213:
.LBE212:
	.loc 1 175 26 is_stmt 0 view .LVU484
	addl	%eax, %esi
.LVL112:
	.loc 1 175 26 view .LVU485
	adcl	%edx, %edi
	subl	-48(%ebp), %esi
	sbbl	-44(%ebp), %edi
	.loc 1 175 13 view .LVU486
	movl	%esi, -48(%ebp)
	movl	%edi, -44(%ebp)
	fildq	-48(%ebp)
	testl	%edi, %edi
	jns	.L44
	fadds	.LC3@GOTOFF(%ebx)
.L44:
	fstps	-48(%ebp)
	flds	-48(%ebp)
	.loc 1 175 11 view .LVU487
	fdivs	.LC4@GOTOFF(%ebx)
.LBB215:
.LBB214:
	.loc 2 107 10 view .LVU488
	subl	$8, %esp
	fstpl	(%esp)
	pushl	-88(%ebp)
	pushl	$1
	call	__printf_chk@PLT
.LVL113:
	.loc 2 107 10 view .LVU489
.LBE214:
.LBE215:
	.loc 1 177 5 is_stmt 1 view .LVU490
	addl	$20, %esp
	pushl	-52(%ebp)
	call	free@PLT
.LVL114:
	.loc 1 178 5 view .LVU491
.LBB216:
.LBI216:
	.loc 2 105 1 view .LVU492
.LBB217:
	.loc 2 107 3 view .LVU493
	.loc 2 107 10 is_stmt 0 view .LVU494
	popl	%eax
	pushl	-76(%ebp)
	call	puts@PLT
.LVL115:
	.loc 2 107 10 view .LVU495
.LBE217:
.LBE216:
	addl	$16, %esp
	.loc 1 179 1 view .LVU497
	movl	-28(%ebp), %eax
	xorl	%gs:20, %eax
	jne	.L47
	leal	-16(%ebp), %esp
	xorl	%eax, %eax
	popl	%ecx
	.cfi_remember_state
	.cfi_restore 1
	.cfi_def_cfa 1, 0
	popl	%ebx
	.cfi_restore 3
	popl	%esi
	.cfi_restore 6
	popl	%edi
	.cfi_restore 7
	popl	%ebp
	.cfi_restore 5
.LVL116:
	.loc 1 179 1 view .LVU498
	leal	-4(%ecx), %esp
	.cfi_def_cfa 4, 4
.LVL117:
	.loc 1 179 1 view .LVU499
	ret
.LVL118:
.L47:
	.cfi_restore_state
	.loc 1 179 1 view .LVU500
	call	__stack_chk_fail_local
.LVL119:
	.cfi_endproc
.LFE45:
	.size	main, .-main
	.section	.rodata.cst4,"aM",@progbits,4
	.align 4
.LC3:
	.long	1602224128
	.align 4
.LC4:
	.long	1232348160
	.section	.text.__x86.get_pc_thunk.bx,"axG",@progbits,__x86.get_pc_thunk.bx,comdat
	.globl	__x86.get_pc_thunk.bx
	.hidden	__x86.get_pc_thunk.bx
	.type	__x86.get_pc_thunk.bx, @function
__x86.get_pc_thunk.bx:
.LFB47:
	.cfi_startproc
	movl	(%esp), %ebx
	ret
	.cfi_endproc
.LFE47:
	.text
.Letext0:
	.file 3 "/usr/lib/gcc/x86_64-linux-gnu/9/include/stddef.h"
	.file 4 "/usr/include/bits/types.h"
	.file 5 "/usr/include/bits/types/struct_FILE.h"
	.file 6 "/usr/include/bits/types/FILE.h"
	.file 7 "/usr/include/stdio.h"
	.file 8 "/usr/include/bits/sys_errlist.h"
	.file 9 "/usr/include/bits/types/struct_timeval.h"
	.file 10 "/usr/include/time.h"
	.file 11 "/usr/include/sys/time.h"
	.file 12 "/usr/include/stdlib.h"
	.file 13 "<built-in>"
	.section	.note.GNU-stack,"",@progbits
	.section	.note.gnu.property,"a"
	.align 4
	.long	 1f - 0f
	.long	 4f - 1f
	.long	 5
0:
	.string	 "GNU"
1:
	.align 4
	.long	 0xc0000002
	.long	 3f - 2f
2:
	.long	 0x3
3:
	.align 4
4:
